target datalayout = "e-m:e-p270:32:32-p271:32:32-p272:64:64-i64:64-i128:128-f80:128-n8:16:32:64-S128"
target triple = "x86_64-pc-linux-gnu"

%struct.PACKET = type { ptr, i64 }

@smbuf = internal global [256 x i8] zeroinitializer, align 16
@.str.25 = private unnamed_addr constant [29 x i8] c"../openssl/test/packettest.c\00", align 1
@.str.30 = private unnamed_addr constant [8 x i8] c"BUF_LEN\00", align 1
@.str.34 = private unnamed_addr constant [38 x i8] c"PACKET_buf_init(&pkt, smbuf, BUF_LEN)\00", align 1
@.str.84 = private unnamed_addr constant [4 x i8] c"len\00", align 1
@.str.88 = private unnamed_addr constant [33 x i8] c"PACKET_memdup(&pkt, &data, &len)\00", align 1
@.str.89 = private unnamed_addr constant [5 x i8] c"data\00", align 1
@.str.90 = private unnamed_addr constant [18 x i8] c"PACKET_data(&pkt)\00", align 1
@.str.91 = private unnamed_addr constant [25 x i8] c"PACKET_forward(&pkt, 10)\00", align 1
@.str.92 = private unnamed_addr constant [13 x i8] c"BUF_LEN - 10\00", align 1
@.str.93 = private unnamed_addr constant [37 x i8] c"../openssl/include/internal/packet.h\00", align 1

; Function Attrs: inlinehint nounwind uwtable
define internal void @packet_forward(ptr noundef %0, i64 noundef %1) #4 {
  %3 = alloca ptr, align 8
  %4 = alloca i64, align 8
  store ptr %0, ptr %3, align 8, !tbaa !33
  store i64 %1, ptr %4, align 8, !tbaa !11
  %5 = load i64, ptr %4, align 8, !tbaa !11
  %6 = load ptr, ptr %3, align 8, !tbaa !33
  %7 = getelementptr inbounds nuw %struct.PACKET, ptr %6, i32 0, i32 0
  %8 = load ptr, ptr %7, align 8, !tbaa !29
  %9 = getelementptr inbounds nuw i8, ptr %8, i64 %5
  store ptr %9, ptr %7, align 8, !tbaa !29
  %10 = load i64, ptr %4, align 8, !tbaa !11
  %11 = load ptr, ptr %3, align 8, !tbaa !33
  %12 = getelementptr inbounds nuw %struct.PACKET, ptr %11, i32 0, i32 1
  %13 = load i64, ptr %12, align 8, !tbaa !31
  %14 = sub i64 %13, %10
  store i64 %14, ptr %12, align 8, !tbaa !31
  ret void
}

; Function Attrs: inlinehint nounwind uwtable
define internal i64 @PACKET_remaining(ptr noundef %0) #4 {
  %2 = alloca ptr, align 8
  store ptr %0, ptr %2, align 8, !tbaa !33
  %3 = load ptr, ptr %2, align 8, !tbaa !33
  %4 = getelementptr inbounds nuw %struct.PACKET, ptr %3, i32 0, i32 1
  %5 = load i64, ptr %4, align 8, !tbaa !31
  ret i64 %5
}

; Function Attrs: inlinehint nounwind uwtable
define internal i32 @PACKET_forward(ptr noundef %0, i64 noundef %1) #4 {
  %3 = alloca i32, align 4
  %4 = alloca ptr, align 8
  %5 = alloca i64, align 8
  store ptr %0, ptr %4, align 8, !tbaa !33
  store i64 %1, ptr %5, align 8, !tbaa !11
  %6 = load ptr, ptr %4, align 8, !tbaa !33
  %7 = call i64 @PACKET_remaining(ptr noundef %6)
  %8 = load i64, ptr %5, align 8, !tbaa !11
  %9 = icmp ult i64 %7, %8
  br i1 %9, label %10, label %11

10:                                               ; preds = %2
  store i32 0, ptr %3, align 4
  br label %14

11:                                               ; preds = %2
  %12 = load ptr, ptr %4, align 8, !tbaa !33
  %13 = load i64, ptr %5, align 8, !tbaa !11
  call void @packet_forward(ptr noundef %12, i64 noundef %13)
  store i32 1, ptr %3, align 4
  br label %14

14:                                               ; preds = %11, %10
  %15 = load i32, ptr %3, align 4
  ret i32 %15
}

; Function Attrs: inlinehint nounwind uwtable
define internal ptr @PACKET_data(ptr noundef %0) #4 {
  %2 = alloca ptr, align 8
  store ptr %0, ptr %2, align 8, !tbaa !33
  %3 = load ptr, ptr %2, align 8, !tbaa !33
  %4 = getelementptr inbounds nuw %struct.PACKET, ptr %3, i32 0, i32 0
  %5 = load ptr, ptr %4, align 8, !tbaa !29
  ret ptr %5
}

; Function Attrs: inlinehint nounwind uwtable
define internal i32 @PACKET_memdup(ptr noundef %0, ptr noundef %1, ptr noundef %2) #4 {
  %4 = alloca i32, align 4
  %5 = alloca ptr, align 8
  %6 = alloca ptr, align 8
  %7 = alloca ptr, align 8
  %8 = alloca i64, align 8
  %9 = alloca i32, align 4
  store ptr %0, ptr %5, align 8, !tbaa !33
  store ptr %1, ptr %6, align 8, !tbaa !38
  store ptr %2, ptr %7, align 8, !tbaa !36
  call void @llvm.lifetime.start.p0(i64 8, ptr %8) #7
  %10 = load ptr, ptr %6, align 8, !tbaa !38
  %11 = load ptr, ptr %10, align 8, !tbaa !13
  call void @CRYPTO_free(ptr noundef %11, ptr noundef @.str.93, i32 noundef 454)
  %12 = load ptr, ptr %6, align 8, !tbaa !38
  store ptr null, ptr %12, align 8, !tbaa !13
  %13 = load ptr, ptr %7, align 8, !tbaa !36
  store i64 0, ptr %13, align 8, !tbaa !11
  %14 = load ptr, ptr %5, align 8, !tbaa !33
  %15 = call i64 @PACKET_remaining(ptr noundef %14)
  store i64 %15, ptr %8, align 8, !tbaa !11
  %16 = load i64, ptr %8, align 8, !tbaa !11
  %17 = icmp eq i64 %16, 0
  br i1 %17, label %18, label %19

18:                                               ; preds = %3
  store i32 1, ptr %4, align 4
  store i32 1, ptr %9, align 4
  br label %33

19:                                               ; preds = %3
  %20 = load ptr, ptr %5, align 8, !tbaa !33
  %21 = getelementptr inbounds nuw %struct.PACKET, ptr %20, i32 0, i32 0
  %22 = load ptr, ptr %21, align 8, !tbaa !29
  %23 = load i64, ptr %8, align 8, !tbaa !11
  %24 = call noalias ptr @CRYPTO_memdup(ptr noundef %22, i64 noundef %23, ptr noundef @.str.93, i32 noundef 463)
  %25 = load ptr, ptr %6, align 8, !tbaa !38
  store ptr %24, ptr %25, align 8, !tbaa !13
  %26 = load ptr, ptr %6, align 8, !tbaa !38
  %27 = load ptr, ptr %26, align 8, !tbaa !13
  %28 = icmp eq ptr %27, null
  br i1 %28, label %29, label %30

29:                                               ; preds = %19
  store i32 0, ptr %4, align 4
  store i32 1, ptr %9, align 4
  br label %33

30:                                               ; preds = %19
  %31 = load i64, ptr %8, align 8, !tbaa !11
  %32 = load ptr, ptr %7, align 8, !tbaa !36
  store i64 %31, ptr %32, align 8, !tbaa !11
  store i32 1, ptr %4, align 4
  store i32 1, ptr %9, align 4
  br label %33

33:                                               ; preds = %30, %29, %18
  call void @llvm.lifetime.end.p0(i64 8, ptr %8) #7
  %34 = load i32, ptr %4, align 4
  ret i32 %34
}

; Function Attrs: inlinehint nounwind uwtable
define internal i32 @PACKET_buf_init(ptr noundef %0, ptr noundef %1, i64 noundef %2) #4 {
  %4 = alloca i32, align 4
  %5 = alloca ptr, align 8
  %6 = alloca ptr, align 8
  %7 = alloca i64, align 8
  store ptr %0, ptr %5, align 8, !tbaa !33
  store ptr %1, ptr %6, align 8, !tbaa !13
  store i64 %2, ptr %7, align 8, !tbaa !11
  %8 = load i64, ptr %7, align 8, !tbaa !11
  %9 = icmp ugt i64 %8, 9223372036854775807
  br i1 %9, label %10, label %11

10:                                               ; preds = %3
  store i32 0, ptr %4, align 4
  br label %18

11:                                               ; preds = %3
  %12 = load ptr, ptr %6, align 8, !tbaa !13
  %13 = load ptr, ptr %5, align 8, !tbaa !33
  %14 = getelementptr inbounds nuw %struct.PACKET, ptr %13, i32 0, i32 0
  store ptr %12, ptr %14, align 8, !tbaa !29
  %15 = load i64, ptr %7, align 8, !tbaa !11
  %16 = load ptr, ptr %5, align 8, !tbaa !33
  %17 = getelementptr inbounds nuw %struct.PACKET, ptr %16, i32 0, i32 1
  store i64 %15, ptr %17, align 8, !tbaa !31
  store i32 1, ptr %4, align 4
  br label %18

18:                                               ; preds = %11, %10
  %19 = load i32, ptr %4, align 4
  ret i32 %19
}

; Function Attrs: nounwind uwtable
define internal i32 @test_PACKET_memdup() #0 {
  %1 = alloca ptr, align 8
  %2 = alloca i64, align 8
  %3 = alloca %struct.PACKET, align 8
  %4 = alloca i32, align 4
  call void @llvm.lifetime.start.p0(i64 8, ptr %1) #7
  store ptr null, ptr %1, align 8, !tbaa !13
  call void @llvm.lifetime.start.p0(i64 8, ptr %2) #7
  call void @llvm.lifetime.start.p0(i64 16, ptr %3) #7
  call void @llvm.lifetime.start.p0(i64 4, ptr %4) #7
  store i32 0, ptr %4, align 4, !tbaa !4
  %5 = call i32 @PACKET_buf_init(ptr noundef %3, ptr noundef @smbuf, i64 noundef 255)
  %6 = icmp ne i32 %5, 0
  %7 = zext i1 %6 to i32
  %8 = call i32 @test_true(ptr noundef @.str.25, i32 noundef 226, ptr noundef @.str.34, i32 noundef %7)
  %9 = icmp ne i32 %8, 0
  br i1 %9, label %10, label %50

10:                                               ; preds = %0
  %11 = call i32 @PACKET_memdup(ptr noundef %3, ptr noundef %1, ptr noundef %2)
  %12 = icmp ne i32 %11, 0
  %13 = zext i1 %12 to i32
  %14 = call i32 @test_true(ptr noundef @.str.25, i32 noundef 227, ptr noundef @.str.88, i32 noundef %13)
  %15 = icmp ne i32 %14, 0
  br i1 %15, label %16, label %50

16:                                               ; preds = %10
  %17 = load i64, ptr %2, align 8, !tbaa !11
  %18 = call i32 @test_size_t_eq(ptr noundef @.str.25, i32 noundef 228, ptr noundef @.str.84, ptr noundef @.str.30, i64 noundef %17, i64 noundef 255)
  %19 = icmp ne i32 %18, 0
  br i1 %19, label %20, label %50

20:                                               ; preds = %16
  %21 = load ptr, ptr %1, align 8, !tbaa !13
  %22 = load i64, ptr %2, align 8, !tbaa !11
  %23 = call ptr @PACKET_data(ptr noundef %3)
  %24 = load i64, ptr %2, align 8, !tbaa !11
  %25 = call i32 @test_mem_eq(ptr noundef @.str.25, i32 noundef 229, ptr noundef @.str.89, ptr noundef @.str.90, ptr noundef %21, i64 noundef %22, ptr noundef %23, i64 noundef %24)
  %26 = icmp ne i32 %25, 0
  br i1 %26, label %27, label %50

27:                                               ; preds = %20
  %28 = call i32 @PACKET_forward(ptr noundef %3, i64 noundef 10)
  %29 = icmp ne i32 %28, 0
  %30 = zext i1 %29 to i32
  %31 = call i32 @test_true(ptr noundef @.str.25, i32 noundef 230, ptr noundef @.str.91, i32 noundef %30)
  %32 = icmp ne i32 %31, 0
  br i1 %32, label %33, label %50

33:                                               ; preds = %27
  %34 = call i32 @PACKET_memdup(ptr noundef %3, ptr noundef %1, ptr noundef %2)
  %35 = icmp ne i32 %34, 0
  %36 = zext i1 %35 to i32
  %37 = call i32 @test_true(ptr noundef @.str.25, i32 noundef 231, ptr noundef @.str.88, i32 noundef %36)
  %38 = icmp ne i32 %37, 0
  br i1 %38, label %39, label %50

39:                                               ; preds = %33
  %40 = load i64, ptr %2, align 8, !tbaa !11
  %41 = call i32 @test_size_t_eq(ptr noundef @.str.25, i32 noundef 232, ptr noundef @.str.84, ptr noundef @.str.92, i64 noundef %40, i64 noundef 245)
  %42 = icmp ne i32 %41, 0
  br i1 %42, label %43, label %50

43:                                               ; preds = %39
  %44 = load ptr, ptr %1, align 8, !tbaa !13
  %45 = load i64, ptr %2, align 8, !tbaa !11
  %46 = call ptr @PACKET_data(ptr noundef %3)
  %47 = load i64, ptr %2, align 8, !tbaa !11
  %48 = call i32 @test_mem_eq(ptr noundef @.str.25, i32 noundef 233, ptr noundef @.str.89, ptr noundef @.str.90, ptr noundef %44, i64 noundef %45, ptr noundef %46, i64 noundef %47)
  %49 = icmp ne i32 %48, 0
  br i1 %49, label %51, label %50

50:                                               ; preds = %43, %39, %33, %27, %20, %16, %10, %0
  br label %52

51:                                               ; preds = %43
  store i32 1, ptr %4, align 4, !tbaa !4
  br label %52

52:                                               ; preds = %51, %50
  %53 = load ptr, ptr %1, align 8, !tbaa !13
  call void @CRYPTO_free(ptr noundef %53, ptr noundef @.str.25, i32 noundef 237)
  %54 = load i32, ptr %4, align 4, !tbaa !4
  call void @llvm.lifetime.end.p0(i64 4, ptr %4) #7
  call void @llvm.lifetime.end.p0(i64 16, ptr %3) #7
  call void @llvm.lifetime.end.p0(i64 8, ptr %2) #7
  call void @llvm.lifetime.end.p0(i64 8, ptr %1) #7
  ret i32 %54
}