; Function Attrs: nounwind uwtable
define internal range(i32 0, 2) i32 @test_PACKET_memdup() #0 {
  %1 = tail call i32 @test_true(ptr noundef nonnull @.str.25, i32 noundef 226, ptr noundef nonnull @.str.34, i32 noundef 1) #6
  %.not = icmp eq i32 %1, 0
  br i1 %.not, label %17, label %PACKET_memdup.exit

PACKET_memdup.exit:                               ; preds = %0
  tail call void @CRYPTO_free(ptr noundef null, ptr noundef nonnull @.str.93, i32 noundef 454) #6
  %2 = tail call noalias ptr @CRYPTO_memdup(ptr noundef nonnull @smbuf, i64 noundef 255, ptr noundef nonnull @.str.93, i32 noundef 463) #6
  %3 = icmp ne ptr %2, null
  %spec.select30 = select i1 %3, i64 255, i64 0
  %spec.select31 = zext i1 %3 to i32
  %4 = tail call i32 @test_true(ptr noundef nonnull @.str.25, i32 noundef 227, ptr noundef nonnull @.str.88, i32 noundef %spec.select31) #6
  %.not1 = icmp eq i32 %4, 0
  br i1 %.not1, label %17, label %5

5:                                                ; preds = %PACKET_memdup.exit
  %6 = tail call i32 @test_size_t_eq(ptr noundef nonnull @.str.25, i32 noundef 228, ptr noundef nonnull @.str.84, ptr noundef nonnull @.str.30, i64 noundef %spec.select30, i64 noundef 255) #6
  %.not2 = icmp eq i32 %6, 0
  br i1 %.not2, label %17, label %7

7:                                                ; preds = %5
  %8 = tail call i32 @test_mem_eq(ptr noundef nonnull @.str.25, i32 noundef 229, ptr noundef nonnull @.str.89, ptr noundef nonnull @.str.90, ptr noundef %2, i64 noundef %spec.select30, ptr noundef nonnull @smbuf, i64 noundef %spec.select30) #6
  %.not3 = icmp eq i32 %8, 0
  br i1 %.not3, label %17, label %PACKET_forward.exit

PACKET_forward.exit:                              ; preds = %7
  %9 = tail call i32 @test_true(ptr noundef nonnull @.str.25, i32 noundef 230, ptr noundef nonnull @.str.91, i32 noundef 1) #6
  %.not4 = icmp eq i32 %9, 0
  br i1 %.not4, label %17, label %PACKET_memdup.exit13

PACKET_memdup.exit13:                             ; preds = %PACKET_forward.exit
  tail call void @CRYPTO_free(ptr noundef %2, ptr noundef nonnull @.str.93, i32 noundef 454) #6
  %10 = tail call noalias ptr @CRYPTO_memdup(ptr noundef nonnull getelementptr inbounds nuw (i8, ptr @smbuf, i64 10), i64 noundef 245, ptr noundef nonnull @.str.93, i32 noundef 463) #6
  %11 = icmp ne ptr %10, null
  %spec.select32 = select i1 %11, i64 245, i64 0
  %spec.select33 = zext i1 %11 to i32
  %12 = tail call i32 @test_true(ptr noundef nonnull @.str.25, i32 noundef 231, ptr noundef nonnull @.str.88, i32 noundef %spec.select33) #6
  %.not5 = icmp eq i32 %12, 0
  br i1 %.not5, label %17, label %13

13:                                               ; preds = %PACKET_memdup.exit13
  %14 = tail call i32 @test_size_t_eq(ptr noundef nonnull @.str.25, i32 noundef 232, ptr noundef nonnull @.str.84, ptr noundef nonnull @.str.92, i64 noundef %spec.select32, i64 noundef 245) #6
  %.not6 = icmp eq i32 %14, 0
  br i1 %.not6, label %17, label %15

15:                                               ; preds = %13
  %16 = tail call i32 @test_mem_eq(ptr noundef nonnull @.str.25, i32 noundef 233, ptr noundef nonnull @.str.89, ptr noundef nonnull @.str.90, ptr noundef %10, i64 noundef %spec.select32, ptr noundef nonnull getelementptr inbounds nuw (i8, ptr @smbuf, i64 10), i64 noundef %spec.select32) #6
  %.not7 = icmp ne i32 %16, 0
  %spec.select = zext i1 %.not7 to i32
  br label %17

17:                                               ; preds = %15, %0, %PACKET_memdup.exit, %5, %7, %PACKET_forward.exit, %PACKET_memdup.exit13, %13
  %.028 = phi ptr [ null, %0 ], [ %2, %PACKET_memdup.exit ], [ %2, %5 ], [ %2, %7 ], [ %2, %PACKET_forward.exit ], [ %10, %PACKET_memdup.exit13 ], [ %10, %13 ], [ %10, %15 ]
  %.0 = phi i32 [ 0, %0 ], [ 0, %PACKET_memdup.exit ], [ 0, %5 ], [ 0, %7 ], [ 0, %PACKET_forward.exit ], [ 0, %PACKET_memdup.exit13 ], [ 0, %13 ], [ %spec.select, %15 ]
  tail call void @CRYPTO_free(ptr noundef %.028, ptr noundef nonnull @.str.25, i32 noundef 237) #6
  ret i32 %.0
}